; Function Attrs: mustprogress nounwind uwtable
define dso_local noundef zeroext i1 @_ZN4llvm2cl6parserIiE5parseERNS0_6OptionENS_9StringRefES5_Ri(ptr nocapture noundef nonnull readnone align 8 dereferenceable(8) %0, ptr nocapture noundef nonnull readonly align 8 dereferenceable(128) %1, ptr nocapture readnone %2, i64 %3, ptr %4, i64 %5, ptr nocapture noundef nonnull writeonly align 4 dereferenceable(4) %6) local_unnamed_addr #0 align 2 {
  %8 = alloca i64, align 8
  %9 = alloca %"class.llvm::Twine", align 8
  %10 = alloca %"class.llvm::Twine", align 8
  call void @llvm.lifetime.start.p0(i64 8, ptr nonnull %8)
  %11 = call noundef zeroext i1 @_ZN4llvm18getAsSignedIntegerENS_9StringRefEjRx(ptr %4, i64 %5, i32 noundef 0, ptr noundef nonnull align 8 dereferenceable(8) %8) #25
  br i1 %11, label %_ZN4llvmplERKNS_5TwineES2_.exit, label %12

12:                                               ; preds = %7
  %13 = load i64, ptr %8, align 8
  %14 = add i64 %13, 2147483648
  %.not.i = icmp ult i64 %14, 4294967296
  br i1 %.not.i, label %_ZNK4llvm9StringRef12getAsIntegerIiEEbjRT_.exit, label %_ZN4llvmplERKNS_5TwineES2_.exit

_ZNK4llvm9StringRef12getAsIntegerIiEEbjRT_.exit:  ; preds = %12
  %15 = trunc i64 %13 to i32
  store i32 %15, ptr %6, align 4
  call void @llvm.lifetime.end.p0(i64 8, ptr nonnull %8)
  br label %25

_ZN4llvmplERKNS_5TwineES2_.exit:                  ; preds = %7, %12
  call void @llvm.lifetime.end.p0(i64 8, ptr nonnull %8)
  %16 = getelementptr inbounds nuw i8, ptr %10, i64 32
  store i8 3, ptr %16, align 8, !alias.scope !28
  %17 = getelementptr inbounds nuw i8, ptr %10, i64 33
  store i8 5, ptr %17, align 1, !alias.scope !28
  store ptr @.str.9, ptr %10, align 8, !alias.scope !28
  %18 = getelementptr inbounds nuw i8, ptr %10, i64 16
  store ptr %4, ptr %18, align 8, !alias.scope !28
  %19 = getelementptr inbounds i8, ptr %10, i64 24
  store i64 %5, ptr %19, align 8, !alias.scope !28
  store ptr %10, ptr %9, align 8, !alias.scope !31
  %20 = getelementptr inbounds nuw i8, ptr %9, i64 16
  store ptr @.str.21, ptr %20, align 8, !alias.scope !31
  %21 = getelementptr inbounds nuw i8, ptr %9, i64 32
  store i8 2, ptr %21, align 8, !alias.scope !31
  %22 = getelementptr inbounds nuw i8, ptr %9, i64 33
  store i8 3, ptr %22, align 1, !alias.scope !31
  %23 = call noundef nonnull align 8 dereferenceable(96) ptr @_ZN4llvm4errsEv() #25
  %24 = call noundef zeroext i1 @_ZN4llvm2cl6Option5errorERKNS_5TwineENS_9StringRefERNS_11raw_ostreamE(ptr noundef nonnull align 8 dereferenceable(128) %1, ptr noundef nonnull align 8 dereferenceable(34) %9, ptr null, i64 0, ptr noundef nonnull align 8 dereferenceable(48) %23)
  br label %25

25:                                               ; preds = %_ZNK4llvm9StringRef12getAsIntegerIiEEbjRT_.exit, %_ZN4llvmplERKNS_5TwineES2_.exit
  %.0.i9 = phi i1 [ false, %_ZNK4llvm9StringRef12getAsIntegerIiEEbjRT_.exit ], [ true, %_ZN4llvmplERKNS_5TwineES2_.exit ]
  ret i1 %.0.i9
}